target datalayout = "e-m:e-p270:32:32-p271:32:32-p272:64:64-i64:64-i128:128-f80:128-n8:16:32:64-S128"
target triple = "x86_64-pc-linux-gnu"

@.str = private unnamed_addr constant [11 x i8] c"Slab Stats\00", align 1
@.str.1 = private unnamed_addr constant [13 x i8] c"Thread stats\00", align 1
@.str.2 = private unnamed_addr constant [13 x i8] c"Global stats\00", align 1
@.str.3 = private unnamed_addr constant [9 x i8] c"Settings\00", align 1
@.str.4 = private unnamed_addr constant [14 x i8] c"Item (no cas)\00", align 1
@.str.5 = private unnamed_addr constant [11 x i8] c"Item (cas)\00", align 1
@.str.6 = private unnamed_addr constant [16 x i8] c"extstore header\00", align 1
@.str.7 = private unnamed_addr constant [16 x i8] c"Libevent thread\00", align 1
@.str.8 = private unnamed_addr constant [11 x i8] c"Connection\00", align 1
@.str.9 = private unnamed_addr constant [16 x i8] c"Response object\00", align 1
@.str.10 = private unnamed_addr constant [16 x i8] c"Response bundle\00", align 1
@.str.11 = private unnamed_addr constant [28 x i8] c"Response objects per bundle\00", align 1
@.str.12 = private unnamed_addr constant [42 x i8] c"----------------------------------------\0A\00", align 1
@.str.13 = private unnamed_addr constant [27 x i8] c"libevent thread cumulative\00", align 1
@.str.14 = private unnamed_addr constant [25 x i8] c"Thread stats cumulative\09\00", align 1
@.str.15 = private unnamed_addr constant [7 x i8] c"%s\09%d\0A\00", align 1

; Function Attrs: nounwind uwtable
define dso_local i32 @main(i32 noundef %0, ptr noundef %1) #0 {
  %3 = alloca i32, align 4
  %4 = alloca i32, align 4
  %5 = alloca ptr, align 8
  store i32 0, ptr %3, align 4
  store i32 %0, ptr %4, align 4, !tbaa !4
  store ptr %1, ptr %5, align 8, !tbaa !8
  call void @display(ptr noundef @.str, i64 noundef 64)
  call void @display(ptr noundef @.str.1, i64 noundef 2352)
  call void @display(ptr noundef @.str.2, i64 noundef 224)
  call void @display(ptr noundef @.str.3, i64 noundef 352)
  call void @display(ptr noundef @.str.4, i64 noundef 48)
  call void @display(ptr noundef @.str.5, i64 noundef 56)
  call void @display(ptr noundef @.str.6, i64 noundef 12)
  call void @display(ptr noundef @.str.7, i64 noundef 544)
  call void @display(ptr noundef @.str.8, i64 noundef 440)
  call void @display(ptr noundef @.str.9, i64 noundef 1184)
  call void @display(ptr noundef @.str.10, i64 noundef 32)
  call void @display(ptr noundef @.str.11, i64 noundef 13)
  %6 = call i32 (ptr, ...) @printf(ptr noundef @.str.12)
  call void @display(ptr noundef @.str.13, i64 noundef 6992)
  call void @display(ptr noundef @.str.14, i64 noundef 6448)
  ret i32 0
}

; Function Attrs: nounwind uwtable
define internal void @display(ptr noundef %0, i64 noundef %1) #0 {
  %3 = alloca ptr, align 8
  %4 = alloca i64, align 8
  store ptr %0, ptr %3, align 8, !tbaa !11
  store i64 %1, ptr %4, align 8, !tbaa !13
  %5 = load ptr, ptr %3, align 8, !tbaa !11
  %6 = load i64, ptr %4, align 8, !tbaa !13
  %7 = trunc i64 %6 to i32
  %8 = call i32 (ptr, ...) @printf(ptr noundef @.str.15, ptr noundef %5, i32 noundef %7)
  ret void
}

declare i32 @printf(ptr noundef, ...) #1


!llvm.module.flags = !{!0, !1, !2, !3}

!0 = !{i32 1, !"wchar_size", i32 4}
!1 = !{i32 8, !"PIC Level", i32 2}
!2 = !{i32 7, !"PIE Level", i32 2}
!3 = !{i32 7, !"uwtable", i32 2}
!4 = !{!5, !5, i64 0}
!5 = !{!"int", !6, i64 0}
!6 = !{!"omnipotent char", !7, i64 0}
!7 = !{!"Simple C/C++ TBAA"}
!8 = !{!9, !9, i64 0}
!9 = !{!"p2 omnipotent char", !10, i64 0}
!10 = !{!"any pointer", !6, i64 0}
!11 = !{!12, !12, i64 0}
!12 = !{!"p1 omnipotent char", !10, i64 0}
!13 = !{!14, !14, i64 0}
!14 = !{!"long", !6, i64 0}
