; ModuleID = 'bench/memcached/original/sizes.ll'
source_filename = "bench/memcached/original/sizes.ll"
target datalayout = "e-m:e-p270:32:32-p271:32:32-p272:64:64-i64:64-i128:128-f80:128-n8:16:32:64-S128"
target triple = "x86_64-pc-linux-gnu"

@.str = private unnamed_addr constant [11 x i8] c"Slab Stats\00", align 1
@.str.1 = private unnamed_addr constant [13 x i8] c"Thread stats\00", align 1
@.str.2 = private unnamed_addr constant [13 x i8] c"Global stats\00", align 1
@.str.3 = private unnamed_addr constant [9 x i8] c"Settings\00", align 1
@.str.4 = private unnamed_addr constant [14 x i8] c"Item (no cas)\00", align 1
@.str.5 = private unnamed_addr constant [11 x i8] c"Item (cas)\00", align 1
@.str.6 = private unnamed_addr constant [16 x i8] c"extstore header\00", align 1
@.str.7 = private unnamed_addr constant [16 x i8] c"Libevent thread\00", align 1
@.str.8 = private unnamed_addr constant [11 x i8] c"Connection\00", align 1
@.str.9 = private unnamed_addr constant [16 x i8] c"Response object\00", align 1
@.str.10 = private unnamed_addr constant [16 x i8] c"Response bundle\00", align 1
@.str.11 = private unnamed_addr constant [28 x i8] c"Response objects per bundle\00", align 1
@.str.13 = private unnamed_addr constant [27 x i8] c"libevent thread cumulative\00", align 1
@.str.14 = private unnamed_addr constant [25 x i8] c"Thread stats cumulative\09\00", align 1
@.str.15 = private unnamed_addr constant [7 x i8] c"%s\09%d\0A\00", align 1
@str = private unnamed_addr constant [41 x i8] c"----------------------------------------\00", align 1

; Function Attrs: nofree nounwind uwtable
define dso_local noundef i32 @main(i32 noundef %0, ptr noundef readnone captures(none) %1) local_unnamed_addr #0 {
  %3 = tail call i32 (ptr, ...) @printf(ptr noundef nonnull dereferenceable(1) @.str.15, ptr noundef nonnull @.str, i32 noundef 64)
  %4 = tail call i32 (ptr, ...) @printf(ptr noundef nonnull dereferenceable(1) @.str.15, ptr noundef nonnull @.str.1, i32 noundef 2352)
  %5 = tail call i32 (ptr, ...) @printf(ptr noundef nonnull dereferenceable(1) @.str.15, ptr noundef nonnull @.str.2, i32 noundef 224)
  %6 = tail call i32 (ptr, ...) @printf(ptr noundef nonnull dereferenceable(1) @.str.15, ptr noundef nonnull @.str.3, i32 noundef 352)
  %7 = tail call i32 (ptr, ...) @printf(ptr noundef nonnull dereferenceable(1) @.str.15, ptr noundef nonnull @.str.4, i32 noundef 48)
  %8 = tail call i32 (ptr, ...) @printf(ptr noundef nonnull dereferenceable(1) @.str.15, ptr noundef nonnull @.str.5, i32 noundef 56)
  %9 = tail call i32 (ptr, ...) @printf(ptr noundef nonnull dereferenceable(1) @.str.15, ptr noundef nonnull @.str.6, i32 noundef 12)
  %10 = tail call i32 (ptr, ...) @printf(ptr noundef nonnull dereferenceable(1) @.str.15, ptr noundef nonnull @.str.7, i32 noundef 544)
  %11 = tail call i32 (ptr, ...) @printf(ptr noundef nonnull dereferenceable(1) @.str.15, ptr noundef nonnull @.str.8, i32 noundef 440)
  %12 = tail call i32 (ptr, ...) @printf(ptr noundef nonnull dereferenceable(1) @.str.15, ptr noundef nonnull @.str.9, i32 noundef 1184)
  %13 = tail call i32 (ptr, ...) @printf(ptr noundef nonnull dereferenceable(1) @.str.15, ptr noundef nonnull @.str.10, i32 noundef 32)
  %14 = tail call i32 (ptr, ...) @printf(ptr noundef nonnull dereferenceable(1) @.str.15, ptr noundef nonnull @.str.11, i32 noundef 13)
  %puts = tail call i32 @puts(ptr nonnull dereferenceable(1) @str)
  %15 = tail call i32 (ptr, ...) @printf(ptr noundef nonnull dereferenceable(1) @.str.15, ptr noundef nonnull @.str.13, i32 noundef 6992)
  %16 = tail call i32 (ptr, ...) @printf(ptr noundef nonnull dereferenceable(1) @.str.15, ptr noundef nonnull @.str.14, i32 noundef 6448)
  ret i32 0
}

; Function Attrs: nofree nounwind
declare noundef i32 @printf(ptr noundef readonly captures(none), ...) local_unnamed_addr #1

; Function Attrs: nofree nounwind
declare noundef i32 @puts(ptr noundef readonly captures(none)) local_unnamed_addr #2


!llvm.module.flags = !{!0, !1, !2, !3}

!0 = !{i32 1, !"wchar_size", i32 4}
!1 = !{i32 8, !"PIC Level", i32 2}
!2 = !{i32 7, !"PIE Level", i32 2}
!3 = !{i32 7, !"uwtable", i32 2}
